; ModuleID = '36/57.c'
source_filename = "36/57.c"
target datalayout = "e-m:e-p270:32:32-p271:32:32-p272:64:64-i64:64-f80:128-n8:16:32:64-S128"
target triple = "x86_64-pc-linux-gnu"

@.str = private unnamed_addr constant [3 x i8] c"%s\00", align 1
@.str.1 = private unnamed_addr constant [4 x i8] c"YES\00", align 1
@.str.2 = private unnamed_addr constant [3 x i8] c"NO\00", align 1

; Function Attrs: noinline nounwind uwtable
define dso_local i32 @main() #0 {
  %1 = alloca i32, align 4
  %2 = alloca [100 x i8], align 16
  %3 = alloca [100 x i8], align 16
  %4 = alloca [100 x i8], align 16
  %5 = alloca [100 x i8], align 16
  %6 = alloca i8, align 1
  %7 = alloca i8, align 1
  %8 = alloca i32, align 4
  %9 = alloca i32, align 4
  store i32 0, i32* %1, align 4
  store i8 1, i8* %6, align 1
  store i8 1, i8* %7, align 1
  store i32 0, i32* %8, align 4
  br label %10

10:                                               ; preds = %20, %0
  %11 = load i32, i32* %8, align 4
  %12 = icmp ult i32 %11, 100
  br i1 %12, label %13, label %23

13:                                               ; preds = %10
  %14 = load i32, i32* %8, align 4
  %15 = zext i32 %14 to i64
  %16 = getelementptr inbounds [100 x i8], [100 x i8]* %4, i64 0, i64 %15
  store i8 0, i8* %16, align 1
  %17 = load i32, i32* %8, align 4
  %18 = zext i32 %17 to i64
  %19 = getelementptr inbounds [100 x i8], [100 x i8]* %5, i64 0, i64 %18
  store i8 0, i8* %19, align 1
  br label %20

20:                                               ; preds = %13
  %21 = load i32, i32* %8, align 4
  %22 = add i32 %21, 1
  store i32 %22, i32* %8, align 4
  br label %10

23:                                               ; preds = %10
  %24 = getelementptr inbounds [100 x i8], [100 x i8]* %2, i64 0, i64 0
  %25 = call i32 (i8*, ...) @__isoc99_scanf(i8* getelementptr inbounds ([3 x i8], [3 x i8]* @.str, i64 0, i64 0), i8* %24)
  %26 = getelementptr inbounds [100 x i8], [100 x i8]* %3, i64 0, i64 0
  %27 = call i32 (i8*, ...) @__isoc99_scanf(i8* getelementptr inbounds ([3 x i8], [3 x i8]* @.str, i64 0, i64 0), i8* %26)
  store i32 0, i32* %8, align 4
  br label %28

28:                                               ; preds = %67, %23
  %29 = load i32, i32* %8, align 4
  %30 = zext i32 %29 to i64
  %31 = getelementptr inbounds [100 x i8], [100 x i8]* %2, i64 0, i64 %30
  %32 = load i8, i8* %31, align 1
  %33 = sext i8 %32 to i32
  %34 = icmp ne i32 %33, 0
  br i1 %34, label %35, label %70

35:                                               ; preds = %28
  store i32 0, i32* %9, align 4
  br label %36

36:                                               ; preds = %63, %35
  %37 = load i32, i32* %9, align 4
  %38 = zext i32 %37 to i64
  %39 = getelementptr inbounds [100 x i8], [100 x i8]* %3, i64 0, i64 %38
  %40 = load i8, i8* %39, align 1
  %41 = sext i8 %40 to i32
  %42 = icmp ne i32 %41, 0
  br i1 %42, label %43, label %66

43:                                               ; preds = %36
  %44 = load i32, i32* %8, align 4
  %45 = zext i32 %44 to i64
  %46 = getelementptr inbounds [100 x i8], [100 x i8]* %2, i64 0, i64 %45
  %47 = load i8, i8* %46, align 1
  %48 = sext i8 %47 to i32
  %49 = load i32, i32* %9, align 4
  %50 = zext i32 %49 to i64
  %51 = getelementptr inbounds [100 x i8], [100 x i8]* %3, i64 0, i64 %50
  %52 = load i8, i8* %51, align 1
  %53 = sext i8 %52 to i32
  %54 = icmp eq i32 %48, %53
  br i1 %54, label %55, label %62

55:                                               ; preds = %43
  %56 = load i32, i32* %8, align 4
  %57 = zext i32 %56 to i64
  %58 = getelementptr inbounds [100 x i8], [100 x i8]* %4, i64 0, i64 %57
  store i8 1, i8* %58, align 1
  %59 = load i32, i32* %9, align 4
  %60 = zext i32 %59 to i64
  %61 = getelementptr inbounds [100 x i8], [100 x i8]* %5, i64 0, i64 %60
  store i8 1, i8* %61, align 1
  br label %62

62:                                               ; preds = %55, %43
  br label %63

63:                                               ; preds = %62
  %64 = load i32, i32* %9, align 4
  %65 = add i32 %64, 1
  store i32 %65, i32* %9, align 4
  br label %36

66:                                               ; preds = %36
  br label %67

67:                                               ; preds = %66
  %68 = load i32, i32* %8, align 4
  %69 = add i32 %68, 1
  store i32 %69, i32* %8, align 4
  br label %28

70:                                               ; preds = %28
  store i32 0, i32* %8, align 4
  br label %71

71:                                               ; preds = %86, %70
  %72 = load i32, i32* %8, align 4
  %73 = zext i32 %72 to i64
  %74 = getelementptr inbounds [100 x i8], [100 x i8]* %2, i64 0, i64 0
  %75 = call i64 @strlen(i8* %74) #3
  %76 = icmp ult i64 %73, %75
  br i1 %76, label %77, label %89

77:                                               ; preds = %71
  %78 = load i32, i32* %8, align 4
  %79 = zext i32 %78 to i64
  %80 = getelementptr inbounds [100 x i8], [100 x i8]* %4, i64 0, i64 %79
  %81 = load i8, i8* %80, align 1
  %82 = sext i8 %81 to i32
  %83 = icmp eq i32 %82, 0
  br i1 %83, label %84, label %85

84:                                               ; preds = %77
  store i8 0, i8* %6, align 1
  br label %85

85:                                               ; preds = %84, %77
  br label %86

86:                                               ; preds = %85
  %87 = load i32, i32* %8, align 4
  %88 = add i32 %87, 1
  store i32 %88, i32* %8, align 4
  br label %71

89:                                               ; preds = %71
  store i32 0, i32* %8, align 4
  br label %90

90:                                               ; preds = %105, %89
  %91 = load i32, i32* %8, align 4
  %92 = zext i32 %91 to i64
  %93 = getelementptr inbounds [100 x i8], [100 x i8]* %3, i64 0, i64 0
  %94 = call i64 @strlen(i8* %93) #3
  %95 = icmp ult i64 %92, %94
  br i1 %95, label %96, label %108

96:                                               ; preds = %90
  %97 = load i32, i32* %8, align 4
  %98 = zext i32 %97 to i64
  %99 = getelementptr inbounds [100 x i8], [100 x i8]* %4, i64 0, i64 %98
  %100 = load i8, i8* %99, align 1
  %101 = sext i8 %100 to i32
  %102 = icmp eq i32 %101, 0
  br i1 %102, label %103, label %104

103:                                              ; preds = %96
  store i8 0, i8* %7, align 1
  br label %104

104:                                              ; preds = %103, %96
  br label %105

105:                                              ; preds = %104
  %106 = load i32, i32* %8, align 4
  %107 = add i32 %106, 1
  store i32 %107, i32* %8, align 4
  br label %90

108:                                              ; preds = %90
  %109 = load i8, i8* %6, align 1
  %110 = sext i8 %109 to i32
  %111 = icmp ne i32 %110, 0
  br i1 %111, label %112, label %118

112:                                              ; preds = %108
  %113 = load i8, i8* %7, align 1
  %114 = sext i8 %113 to i32
  %115 = icmp ne i32 %114, 0
  br i1 %115, label %116, label %118

116:                                              ; preds = %112
  %117 = call i32 (i8*, ...) @printf(i8* getelementptr inbounds ([4 x i8], [4 x i8]* @.str.1, i64 0, i64 0))
  br label %120

118:                                              ; preds = %112, %108
  %119 = call i32 (i8*, ...) @printf(i8* getelementptr inbounds ([3 x i8], [3 x i8]* @.str.2, i64 0, i64 0))
  br label %120

120:                                              ; preds = %118, %116
  ret i32 0
}

declare dso_local i32 @__isoc99_scanf(i8*, ...) #1

; Function Attrs: nounwind readonly
declare dso_local i64 @strlen(i8*) #2

declare dso_local i32 @printf(i8*, ...) #1


!llvm.module.flags = !{!0}
!llvm.ident = !{!1}

!0 = !{i32 1, !"wchar_size", i32 4}
!1 = !{!"clang version 10.0.0-4ubuntu1 "}
